target datalayout = "e-m:e-p270:32:32-p271:32:32-p272:64:64-i64:64-i128:128-f80:128-n8:16:32:64-S128"
target triple = "x86_64-pc-linux-gnu"

%struct._zval_struct = type { %union._zend_value, %union.anon.3, %union.anon.6 }
%union._zend_value = type { i64 }
%union.anon.3 = type { i32 }
%union.anon.6 = type { i32 }
%struct._zend_array = type { %struct._zend_refcounted_h, %union.anon.0, i32, %union.anon.1, i32, i32, i32, i32, i64, ptr }
%struct._zend_refcounted_h = type { i32, %union.anon }
%union.anon = type { i32 }
%union.anon.0 = type { i32 }
%union.anon.1 = type { ptr }
%struct._zend_pcre_globals = type { %struct._zend_array, i64, i64, i8, i32, %struct._zval_struct, %struct._zval_struct, ptr }

@pcre_globals = dso_local global %struct._zend_pcre_globals zeroinitializer, align 8
@mdata_used = internal global i8 0, align 1
@pcre2_init_ok = internal global i8 0, align 1

; Function Attrs: nounwind uwtable
define internal i32 @zm_activate_pcre(i32 noundef %0, i32 noundef %1) #0 {
  %3 = alloca i32, align 4
  %4 = alloca i32, align 4
  %5 = alloca i32, align 4
  store i32 %0, ptr %4, align 4, !tbaa !13
  store i32 %1, ptr %5, align 4, !tbaa !13
  %6 = load i8, ptr @pcre2_init_ok, align 1, !tbaa !45
  %7 = icmp ne i8 %6, 0
  %8 = xor i1 %7, true
  %9 = xor i1 %8, true
  %10 = xor i1 %9, true
  %11 = zext i1 %10 to i32
  %12 = sext i32 %11 to i64
  %13 = call i64 @llvm.expect.i64(i64 %12, i64 0)
  %14 = icmp ne i64 %13, 0
  br i1 %14, label %15, label %23

15:                                               ; preds = %2
  %16 = load i8, ptr getelementptr inbounds nuw (%struct._zend_pcre_globals, ptr @pcre_globals, i32 0, i32 3), align 8, !tbaa !55, !range !17, !noundef !18
  %17 = trunc i8 %16 to i1
  %18 = zext i1 %17 to i8
  call void @php_pcre_init_pcre2(i8 noundef zeroext %18)
  %19 = load i8, ptr @pcre2_init_ok, align 1, !tbaa !45
  %20 = icmp ne i8 %19, 0
  br i1 %20, label %22, label %21

21:                                               ; preds = %15
  store i32 -1, ptr %3, align 4
  br label %29

22:                                               ; preds = %15
  br label %23

23:                                               ; preds = %22, %2
  store i8 0, ptr @mdata_used, align 1, !tbaa !9
  store i32 0, ptr getelementptr inbounds nuw (%struct._zend_pcre_globals, ptr @pcre_globals, i32 0, i32 4), align 4, !tbaa !66
  %24 = call ptr @php_pcre2_general_context_create(ptr noundef @php_pcre_emalloc, ptr noundef @php_pcre_efree, ptr noundef null)
  store ptr %24, ptr getelementptr inbounds nuw (%struct._zend_pcre_globals, ptr @pcre_globals, i32 0, i32 7), align 8, !tbaa !101
  %25 = load ptr, ptr getelementptr inbounds nuw (%struct._zend_pcre_globals, ptr @pcre_globals, i32 0, i32 7), align 8, !tbaa !101
  %26 = icmp ne ptr %25, null
  br i1 %26, label %28, label %27

27:                                               ; preds = %23
  store i32 -1, ptr %3, align 4
  br label %29

28:                                               ; preds = %23
  store i32 0, ptr %3, align 4
  br label %29

29:                                               ; preds = %28, %27, %21
  %30 = load i32, ptr %3, align 4
  ret i32 %30
}