; Function Attrs: nounwind uwtable
define internal range(i32 -1, 1) i32 @zm_activate_pcre(i32 %0, i32 %1) #0 {
  %.b1 = load i1, ptr @pcre2_init_ok, align 1
  br i1 %.b1, label %5, label %3, !prof !55

3:                                                ; preds = %2
  %4 = load i8, ptr getelementptr inbounds nuw (i8, ptr @pcre_globals, i64 72), align 8, !tbaa !53, !range !54, !noundef !45
  tail call fastcc void @php_pcre_init_pcre2(i8 noundef zeroext %4)
  %.b = load i1, ptr @pcre2_init_ok, align 1
  br i1 %.b, label %5, label %7

5:                                                ; preds = %3, %2
  store i1 false, ptr @mdata_used, align 1
  store i32 0, ptr getelementptr inbounds nuw (i8, ptr @pcre_globals, i64 76), align 4, !tbaa !18
  %6 = tail call ptr @php_pcre2_general_context_create(ptr noundef nonnull @php_pcre_emalloc, ptr noundef nonnull @php_pcre_efree, ptr noundef null) #24
  store ptr %6, ptr getelementptr inbounds nuw (i8, ptr @pcre_globals, i64 112), align 8, !tbaa !92
  %.not = icmp eq ptr %6, null
  %. = sext i1 %.not to i32
  br label %7

7:                                                ; preds = %5, %3
  %.0 = phi i32 [ -1, %3 ], [ %., %5 ]
  ret i32 %.0
}